target datalayout = "e-m:e-p270:32:32-p271:32:32-p272:64:64-i64:64-i128:128-f80:128-n8:16:32:64-S128"
target triple = "x86_64-pc-linux-gnu"

%union.UElement = type { ptr }
%"struct.std::atomic" = type { %"struct.std::__atomic_base" }
%"struct.std::__atomic_base" = type { i32 }
%"class.icu_77::UnifiedCache" = type { %"class.icu_77::UnifiedCacheBase", ptr, i32, i32, i32, i32, i32, i64, ptr }
%"class.icu_77::UnifiedCacheBase" = type { %"class.icu_77::UObject" }
%"class.icu_77::UObject" = type { ptr }
%"class.icu_77::SharedObject" = type { %"class.icu_77::UObject", i32, %"struct.std::atomic", ptr }
%struct.UHashElement = type { i32, %union.UElement, %union.UElement }
%"class.icu_77::CacheKeyBase" = type <{ %"class.icu_77::UObject", i32, i8, [3 x i8] }>

; Function Attrs: inlinehint mustprogress uwtable
define linkonce_odr noundef signext i8 @_ZNK6icu_7712SharedObject16noHardReferencesEv(ptr noundef nonnull align 8 dereferenceable(24) %0) #2 comdat align 2 {
  %2 = alloca ptr, align 8
  store ptr %0, ptr %2, align 8, !tbaa !46
  %3 = load ptr, ptr %2, align 8
  %4 = call noundef i32 @_ZNK6icu_7712SharedObject11getRefCountEv(ptr noundef nonnull align 8 dereferenceable(24) %3)
  %5 = icmp eq i32 %4, 0
  %6 = zext i1 %5 to i8
  ret i8 %6
}

; Function Attrs: mustprogress nounwind uwtable
define noundef signext i8 @_ZNK6icu_7712UnifiedCache11_inProgressEPKNS_12SharedObjectE10UErrorCode(ptr noundef nonnull align 8 dereferenceable(56) %0, ptr noundef %1, i32 noundef %2) #3 align 2 {
  %4 = alloca ptr, align 8
  %5 = alloca ptr, align 8
  %6 = alloca i32, align 4
  store ptr %0, ptr %4, align 8, !tbaa !14
  store ptr %1, ptr %5, align 8, !tbaa !46
  store i32 %2, ptr %6, align 4, !tbaa !12
  %7 = load ptr, ptr %4, align 8
  %8 = load ptr, ptr %5, align 8, !tbaa !46
  %9 = getelementptr inbounds nuw %"class.icu_77::UnifiedCache", ptr %7, i32 0, i32 8
  %10 = load ptr, ptr %9, align 8, !tbaa !40
  %11 = icmp eq ptr %8, %10
  br i1 %11, label %12, label %15

12:                                               ; preds = %3
  %13 = load i32, ptr %6, align 4, !tbaa !12
  %14 = icmp eq i32 %13, 0
  br label %15

15:                                               ; preds = %12, %3
  %16 = phi i1 [ false, %3 ], [ %14, %12 ]
  %17 = zext i1 %16 to i8
  ret i8 %17
}

; Function Attrs: mustprogress uwtable
define noundef signext i8 @_ZNK6icu_7712UnifiedCache12_isEvictableEPK12UHashElement(ptr noundef nonnull align 8 dereferenceable(56) %0, ptr noundef %1) #0 align 2 {
  %3 = alloca i8, align 1
  %4 = alloca ptr, align 8
  %5 = alloca ptr, align 8
  %6 = alloca ptr, align 8
  %7 = alloca ptr, align 8
  %8 = alloca i32, align 4
  store ptr %0, ptr %4, align 8, !tbaa !14
  store ptr %1, ptr %5, align 8, !tbaa !56
  %9 = load ptr, ptr %4, align 8
  call void @llvm.lifetime.start.p0(i64 8, ptr %6) #12
  %10 = load ptr, ptr %5, align 8, !tbaa !56
  %11 = getelementptr inbounds nuw %struct.UHashElement, ptr %10, i32 0, i32 2
  %12 = load ptr, ptr %11, align 8, !tbaa !3
  store ptr %12, ptr %6, align 8, !tbaa !6
  call void @llvm.lifetime.start.p0(i64 8, ptr %7) #12
  %13 = load ptr, ptr %5, align 8, !tbaa !56
  %14 = getelementptr inbounds nuw %struct.UHashElement, ptr %13, i32 0, i32 1
  %15 = load ptr, ptr %14, align 8, !tbaa !3
  store ptr %15, ptr %7, align 8, !tbaa !46
  %16 = load ptr, ptr %7, align 8, !tbaa !46
  %17 = load ptr, ptr %6, align 8, !tbaa !6
  %18 = getelementptr inbounds nuw %"class.icu_77::CacheKeyBase", ptr %17, i32 0, i32 1
  %19 = load i32, ptr %18, align 8, !tbaa !60
  %20 = call noundef signext i8 @_ZNK6icu_7712UnifiedCache11_inProgressEPKNS_12SharedObjectE10UErrorCode(ptr noundef nonnull align 8 dereferenceable(56) %9, ptr noundef %16, i32 noundef %19)
  %21 = icmp ne i8 %20, 0
  br i1 %21, label %22, label %23

22:                                               ; preds = %2
  store i8 0, ptr %3, align 1
  store i32 1, ptr %8, align 4
  br label %42

23:                                               ; preds = %2
  %24 = load ptr, ptr %6, align 8, !tbaa !6
  %25 = getelementptr inbounds nuw %"class.icu_77::CacheKeyBase", ptr %24, i32 0, i32 2
  %26 = load i8, ptr %25, align 4, !tbaa !62
  %27 = icmp ne i8 %26, 0
  br i1 %27, label %28, label %39

28:                                               ; preds = %23
  %29 = load ptr, ptr %7, align 8, !tbaa !46
  %30 = getelementptr inbounds nuw %"class.icu_77::SharedObject", ptr %29, i32 0, i32 1
  %31 = load i32, ptr %30, align 8, !tbaa !41
  %32 = icmp eq i32 %31, 1
  br i1 %32, label %33, label %37

33:                                               ; preds = %28
  %34 = load ptr, ptr %7, align 8, !tbaa !46
  %35 = call noundef signext i8 @_ZNK6icu_7712SharedObject16noHardReferencesEv(ptr noundef nonnull align 8 dereferenceable(24) %34)
  %36 = icmp ne i8 %35, 0
  br label %37

37:                                               ; preds = %33, %28
  %38 = phi i1 [ false, %28 ], [ %36, %33 ]
  br label %39

39:                                               ; preds = %37, %23
  %40 = phi i1 [ true, %23 ], [ %38, %37 ]
  %41 = zext i1 %40 to i8
  store i8 %41, ptr %3, align 1
  store i32 1, ptr %8, align 4
  br label %42

42:                                               ; preds = %39, %22
  call void @llvm.lifetime.end.p0(i64 8, ptr %7) #12
  call void @llvm.lifetime.end.p0(i64 8, ptr %6) #12
  %43 = load i8, ptr %3, align 1
  ret i8 %43
}