; Function Attrs: mustprogress uwtable
define noundef signext range(i8 0, 2) i8 @_ZNK6icu_7712UnifiedCache12_isEvictableEPK12UHashElement(ptr noundef nonnull readonly align 8 captures(none) dereferenceable(56) %0, ptr noundef readonly captures(none) %1) local_unnamed_addr #0 align 2 {
  %3 = getelementptr inbounds nuw i8, ptr %1, i64 16
  %4 = load ptr, ptr %3, align 8, !tbaa !41
  %5 = getelementptr inbounds nuw i8, ptr %1, i64 8
  %6 = load ptr, ptr %5, align 8, !tbaa !41
  %7 = getelementptr inbounds nuw i8, ptr %4, i64 8
  %8 = load i32, ptr %7, align 8, !tbaa !42
  %9 = getelementptr inbounds nuw i8, ptr %0, i64 48
  %10 = load ptr, ptr %9, align 8, !tbaa !33
  %11 = icmp ne ptr %6, %10
  %12 = icmp ne i32 %8, 0
  %.not11 = or i1 %12, %11
  br i1 %.not11, label %13, label %24

13:                                               ; preds = %2
  %14 = getelementptr inbounds nuw i8, ptr %4, i64 12
  %15 = load i8, ptr %14, align 4, !tbaa !44
  %.not8 = icmp eq i8 %15, 0
  br i1 %.not8, label %24, label %16

16:                                               ; preds = %13
  %17 = getelementptr inbounds nuw i8, ptr %6, i64 8
  %18 = load i32, ptr %17, align 8, !tbaa !34
  %19 = icmp eq i32 %18, 1
  br i1 %19, label %20, label %24

20:                                               ; preds = %16
  %21 = tail call noundef i32 @_ZNK6icu_7712SharedObject11getRefCountEv(ptr noundef nonnull align 8 dereferenceable(24) %6)
  %22 = icmp eq i32 %21, 0
  %23 = zext i1 %22 to i8
  br label %24

24:                                               ; preds = %13, %20, %16, %2
  %.0 = phi i8 [ 0, %2 ], [ 1, %13 ], [ 0, %16 ], [ %23, %20 ]
  ret i8 %.0
}